; Function Attrs: mustprogress uwtable
define hidden void @_ZN4cvc58internal6theory5arith6linear11DenseVector5purgeEv(ptr noundef nonnull align 8 dereferenceable(104) %0) local_unnamed_addr #13 align 2 personality ptr @__gxx_personality_v0 {
  %2 = alloca %"class.cvc5::internal::Rational", align 8
  %3 = getelementptr inbounds nuw i8, ptr %0, i64 8
  %4 = load ptr, ptr %0, align 8, !tbaa !172
  %5 = load ptr, ptr %3, align 8, !tbaa !172
  %6 = icmp eq ptr %4, %5
  br i1 %6, label %_ZN4cvc58internal8DenseMapINS0_8RationalEE5purgeEv.exit, label %.lr.ph.i

.lr.ph.i:                                         ; preds = %1, %.lr.ph.i
  tail call void @_ZN4cvc58internal8DenseMapINS0_8RationalEE8pop_backEv(ptr noundef nonnull align 8 dereferenceable(72) %0)
  %7 = load ptr, ptr %0, align 8, !tbaa !172
  %8 = load ptr, ptr %3, align 8, !tbaa !172
  %9 = icmp eq ptr %7, %8
  br i1 %9, label %_ZN4cvc58internal8DenseMapINS0_8RationalEE5purgeEv.exit, label %.lr.ph.i, !llvm.loop !190

_ZN4cvc58internal8DenseMapINS0_8RationalEE5purgeEv.exit: ; preds = %.lr.ph.i, %1
  call void @llvm.lifetime.start.p0(i64 32, ptr nonnull %2) #27
  call void @_ZN4cvc58internal8RationalC2Ei(ptr noundef nonnull align 8 dereferenceable(32) %2, i32 noundef 0)
  %10 = getelementptr inbounds nuw i8, ptr %0, i64 72
  %11 = icmp eq ptr %10, %2
  br i1 %11, label %_ZN4cvc58internal8RationalaSERKS1_.exit, label %12

12:                                               ; preds = %_ZN4cvc58internal8DenseMapINS0_8RationalEE5purgeEv.exit
  invoke void @__gmpq_set(ptr noundef nonnull align 8 dereferenceable(32) %10, ptr noundef nonnull align 8 dereferenceable(32) %2)
          to label %_ZN4cvc58internal8RationalaSERKS1_.exit unwind label %16

_ZN4cvc58internal8RationalaSERKS1_.exit:          ; preds = %_ZN4cvc58internal8DenseMapINS0_8RationalEE5purgeEv.exit, %12
  invoke void @__gmpq_clear(ptr noundef nonnull align 8 dereferenceable(32) %2)
          to label %_ZN4cvc58internal8RationalD2Ev.exit unwind label %13

13:                                               ; preds = %_ZN4cvc58internal8RationalaSERKS1_.exit
  %14 = landingpad { ptr, i32 }
          catch ptr null
  %15 = extractvalue { ptr, i32 } %14, 0
  call void @__clang_call_terminate(ptr %15) #28
  unreachable

_ZN4cvc58internal8RationalD2Ev.exit:              ; preds = %_ZN4cvc58internal8RationalaSERKS1_.exit
  call void @llvm.lifetime.end.p0(i64 32, ptr nonnull %2) #27
  ret void

16:                                               ; preds = %12
  %17 = landingpad { ptr, i32 }
          cleanup
  invoke void @__gmpq_clear(ptr noundef nonnull align 8 dereferenceable(32) %2)
          to label %_ZN4cvc58internal8RationalD2Ev.exit2 unwind label %18

18:                                               ; preds = %16
  %19 = landingpad { ptr, i32 }
          catch ptr null
  %20 = extractvalue { ptr, i32 } %19, 0
  call void @__clang_call_terminate(ptr %20) #28
  unreachable

_ZN4cvc58internal8RationalD2Ev.exit2:             ; preds = %16
  call void @llvm.lifetime.end.p0(i64 32, ptr nonnull %2) #27
  resume { ptr, i32 } %17
}